target datalayout = "e-m:e-p270:32:32-p271:32:32-p272:64:64-i64:64-i128:128-f80:128-n8:16:32:64-S128"
target triple = "x86_64-pc-linux-gnu"

; Function Attrs: nounwind uwtable
define internal i32 @witness(ptr noundef %0, ptr noundef %1, ptr noundef %2, ptr noundef %3, i32 noundef %4, ptr noundef %5, ptr noundef %6) #0 {
  %8 = alloca i32, align 4
  %9 = alloca ptr, align 8
  %10 = alloca ptr, align 8
  %11 = alloca ptr, align 8
  %12 = alloca ptr, align 8
  %13 = alloca i32, align 4
  %14 = alloca ptr, align 8
  %15 = alloca ptr, align 8
  store ptr %0, ptr %9, align 8, !tbaa !17
  store ptr %1, ptr %10, align 8, !tbaa !17
  store ptr %2, ptr %11, align 8, !tbaa !17
  store ptr %3, ptr %12, align 8, !tbaa !17
  store i32 %4, ptr %13, align 4, !tbaa !15
  store ptr %5, ptr %14, align 8, !tbaa !19
  store ptr %6, ptr %15, align 8, !tbaa !33
  %16 = load ptr, ptr %9, align 8, !tbaa !17
  %17 = load ptr, ptr %9, align 8, !tbaa !17
  %18 = load ptr, ptr %12, align 8, !tbaa !17
  %19 = load ptr, ptr %10, align 8, !tbaa !17
  %20 = load ptr, ptr %14, align 8, !tbaa !19
  %21 = load ptr, ptr %15, align 8, !tbaa !33
  %22 = call i32 @BN_mod_exp_mont(ptr noundef %16, ptr noundef %17, ptr noundef %18, ptr noundef %19, ptr noundef %20, ptr noundef %21)
  %23 = icmp ne i32 %22, 0
  br i1 %23, label %25, label %24

24:                                               ; preds = %7
  store i32 -1, ptr %8, align 4
  br label %63

25:                                               ; preds = %7
  %26 = load ptr, ptr %9, align 8, !tbaa !17
  %27 = call i32 @BN_is_one(ptr noundef %26)
  %28 = icmp ne i32 %27, 0
  br i1 %28, label %29, label %30

29:                                               ; preds = %25
  store i32 0, ptr %8, align 4
  br label %63

30:                                               ; preds = %25
  %31 = load ptr, ptr %9, align 8, !tbaa !17
  %32 = load ptr, ptr %11, align 8, !tbaa !17
  %33 = call i32 @BN_cmp(ptr noundef %31, ptr noundef %32)
  %34 = icmp eq i32 %33, 0
  br i1 %34, label %35, label %36

35:                                               ; preds = %30
  store i32 0, ptr %8, align 4
  br label %63

36:                                               ; preds = %30
  br label %37

37:                                               ; preds = %61, %36
  %38 = load i32, ptr %13, align 4, !tbaa !15
  %39 = add nsw i32 %38, -1
  store i32 %39, ptr %13, align 4, !tbaa !15
  %40 = icmp ne i32 %39, 0
  br i1 %40, label %41, label %62

41:                                               ; preds = %37
  %42 = load ptr, ptr %9, align 8, !tbaa !17
  %43 = load ptr, ptr %9, align 8, !tbaa !17
  %44 = load ptr, ptr %9, align 8, !tbaa !17
  %45 = load ptr, ptr %10, align 8, !tbaa !17
  %46 = load ptr, ptr %14, align 8, !tbaa !19
  %47 = call i32 @BN_mod_mul(ptr noundef %42, ptr noundef %43, ptr noundef %44, ptr noundef %45, ptr noundef %46)
  %48 = icmp ne i32 %47, 0
  br i1 %48, label %50, label %49

49:                                               ; preds = %41
  store i32 -1, ptr %8, align 4
  br label %63

50:                                               ; preds = %41
  %51 = load ptr, ptr %9, align 8, !tbaa !17
  %52 = call i32 @BN_is_one(ptr noundef %51)
  %53 = icmp ne i32 %52, 0
  br i1 %53, label %54, label %55

54:                                               ; preds = %50
  store i32 1, ptr %8, align 4
  br label %63

55:                                               ; preds = %50
  %56 = load ptr, ptr %9, align 8, !tbaa !17
  %57 = load ptr, ptr %11, align 8, !tbaa !17
  %58 = call i32 @BN_cmp(ptr noundef %56, ptr noundef %57)
  %59 = icmp eq i32 %58, 0
  br i1 %59, label %60, label %61

60:                                               ; preds = %55
  store i32 0, ptr %8, align 4
  br label %63

61:                                               ; preds = %55
  br label %37, !llvm.loop !43

62:                                               ; preds = %37
  store i32 1, ptr %8, align 4
  br label %63

63:                                               ; preds = %62, %60, %54, %49, %35, %29, %24
  %64 = load i32, ptr %8, align 4
  ret i32 %64
}