; Function Attrs: nounwind uwtable
define internal fastcc range(i32 -1, 2) i32 @witness(ptr noundef nonnull %0, ptr noundef %1, ptr noundef %2, ptr noundef %3, i32 noundef %4, ptr noundef nonnull %5, ptr noundef nonnull %6) unnamed_addr #1 {
  %8 = tail call i32 @BN_mod_exp_mont(ptr noundef nonnull %0, ptr noundef nonnull %0, ptr noundef %3, ptr noundef %1, ptr noundef nonnull %5, ptr noundef nonnull %6) #5
  %.not = icmp eq i32 %8, 0
  br i1 %.not, label %.loopexit, label %9

9:                                                ; preds = %7
  %10 = tail call i32 @BN_is_one(ptr noundef nonnull %0) #5
  %.not20 = icmp eq i32 %10, 0
  br i1 %.not20, label %11, label %.loopexit

11:                                               ; preds = %9
  %12 = tail call i32 @BN_cmp(ptr noundef nonnull %0, ptr noundef %2) #5
  %13 = icmp eq i32 %12, 0
  br i1 %13, label %.loopexit, label %.preheader

.preheader:                                       ; preds = %11, %19
  %.018 = phi i32 [ %14, %19 ], [ %4, %11 ]
  %14 = add nsw i32 %.018, -1
  %.not21 = icmp eq i32 %14, 0
  br i1 %.not21, label %.loopexit, label %15

15:                                               ; preds = %.preheader
  %16 = tail call i32 @BN_mod_mul(ptr noundef nonnull %0, ptr noundef nonnull %0, ptr noundef nonnull %0, ptr noundef %1, ptr noundef nonnull %5) #5
  %.not22 = icmp eq i32 %16, 0
  br i1 %.not22, label %.loopexit, label %17

17:                                               ; preds = %15
  %18 = tail call i32 @BN_is_one(ptr noundef nonnull %0) #5
  %.not23 = icmp eq i32 %18, 0
  br i1 %.not23, label %19, label %.loopexit

19:                                               ; preds = %17
  %20 = tail call i32 @BN_cmp(ptr noundef nonnull %0, ptr noundef %2) #5
  %21 = icmp eq i32 %20, 0
  br i1 %21, label %.loopexit, label %.preheader, !llvm.loop !33

.loopexit:                                        ; preds = %.preheader, %19, %17, %15, %11, %9, %7
  %.0 = phi i32 [ -1, %7 ], [ 0, %9 ], [ 0, %11 ], [ 1, %.preheader ], [ 0, %19 ], [ 1, %17 ], [ -1, %15 ]
  ret i32 %.0
}